target datalayout = "e-m:e-p270:32:32-p271:32:32-p272:64:64-i64:64-i128:128-f80:128-n8:16:32:64-S128"
target triple = "x86_64-pc-linux-gnu"

%"struct.cv::text::line_estimates" = type { float, float, float, float, float, float, float, float, i32, i32, i32 }
%"struct.cv::text::region_triplet" = type { %"class.cv::Vec.131", %"class.cv::Vec.131", %"class.cv::Vec.131", %"struct.cv::text::line_estimates" }
%"class.cv::Vec.131" = type { %"class.cv::Matx.132" }
%"class.cv::Matx.132" = type { [2 x i32] }

; Function Attrs: inlinehint mustprogress nounwind uwtable
define internal noundef zeroext i1 @_ZN2cveqIiLi2ELi1EEEbRKNS_4MatxIT_XT0_EXT1_EEES5_(ptr noundef nonnull align 4 dereferenceable(8) %0, ptr noundef nonnull align 4 dereferenceable(8) %1) #5 {
  %3 = alloca i1, align 1
  %4 = alloca ptr, align 8
  %5 = alloca ptr, align 8
  %6 = alloca i32, align 4
  %7 = alloca i32, align 4
  store ptr %0, ptr %4, align 8, !tbaa !492
  store ptr %1, ptr %5, align 8, !tbaa !492
  call void @llvm.lifetime.start.p0(i64 4, ptr %6) #3
  store i32 0, ptr %6, align 4, !tbaa !8
  br label %8

8:                                                ; preds = %28, %2
  %9 = load i32, ptr %6, align 4, !tbaa !8
  %10 = icmp slt i32 %9, 2
  br i1 %10, label %12, label %11

11:                                               ; preds = %8
  store i32 2, ptr %7, align 4
  br label %31

12:                                               ; preds = %8
  %13 = load ptr, ptr %4, align 8, !tbaa !492
  %14 = getelementptr inbounds nuw %"class.cv::Matx.132", ptr %13, i32 0, i32 0
  %15 = load i32, ptr %6, align 4, !tbaa !8
  %16 = sext i32 %15 to i64
  %17 = getelementptr inbounds [2 x i32], ptr %14, i64 0, i64 %16
  %18 = load i32, ptr %17, align 4, !tbaa !8
  %19 = load ptr, ptr %5, align 8, !tbaa !492
  %20 = getelementptr inbounds nuw %"class.cv::Matx.132", ptr %19, i32 0, i32 0
  %21 = load i32, ptr %6, align 4, !tbaa !8
  %22 = sext i32 %21 to i64
  %23 = getelementptr inbounds [2 x i32], ptr %20, i64 0, i64 %22
  %24 = load i32, ptr %23, align 4, !tbaa !8
  %25 = icmp ne i32 %18, %24
  br i1 %25, label %26, label %27

26:                                               ; preds = %12
  store i1 false, ptr %3, align 1
  store i32 1, ptr %7, align 4
  br label %31

27:                                               ; preds = %12
  br label %28

28:                                               ; preds = %27
  %29 = load i32, ptr %6, align 4, !tbaa !8
  %30 = add nsw i32 %29, 1
  store i32 %30, ptr %6, align 4, !tbaa !8
  br label %8, !llvm.loop !494

31:                                               ; preds = %26, %11
  call void @llvm.lifetime.end.p0(i64 4, ptr %6) #3
  %32 = load i32, ptr %7, align 4
  switch i32 %32, label %36 [
    i32 2, label %33
    i32 1, label %34
  ]

33:                                               ; preds = %31
  store i1 true, ptr %3, align 1
  br label %34

34:                                               ; preds = %33, %31
  %35 = load i1, ptr %3, align 1
  ret i1 %35

36:                                               ; preds = %31
  unreachable
}

; Function Attrs: mustprogress uwtable
define hidden noundef zeroext i1 @_ZN2cv4text16haveCommonRegionERNS0_14region_tripletES2_(ptr noundef nonnull align 4 dereferenceable(68) %0, ptr noundef nonnull align 4 dereferenceable(68) %1) #4 {
  %3 = alloca i1, align 1
  %4 = alloca ptr, align 8
  %5 = alloca ptr, align 8
  store ptr %0, ptr %4, align 8, !tbaa !464
  store ptr %1, ptr %5, align 8, !tbaa !464
  %6 = load ptr, ptr %4, align 8, !tbaa !464
  %7 = getelementptr inbounds nuw %"struct.cv::text::region_triplet", ptr %6, i32 0, i32 0
  %8 = load ptr, ptr %5, align 8, !tbaa !464
  %9 = getelementptr inbounds nuw %"struct.cv::text::region_triplet", ptr %8, i32 0, i32 0
  %10 = call noundef zeroext i1 @_ZN2cveqIiLi2ELi1EEEbRKNS_4MatxIT_XT0_EXT1_EEES5_(ptr noundef nonnull align 4 dereferenceable(8) %7, ptr noundef nonnull align 4 dereferenceable(8) %9)
  br i1 %10, label %59, label %11

11:                                               ; preds = %2
  %12 = load ptr, ptr %4, align 8, !tbaa !464
  %13 = getelementptr inbounds nuw %"struct.cv::text::region_triplet", ptr %12, i32 0, i32 0
  %14 = load ptr, ptr %5, align 8, !tbaa !464
  %15 = getelementptr inbounds nuw %"struct.cv::text::region_triplet", ptr %14, i32 0, i32 1
  %16 = call noundef zeroext i1 @_ZN2cveqIiLi2ELi1EEEbRKNS_4MatxIT_XT0_EXT1_EEES5_(ptr noundef nonnull align 4 dereferenceable(8) %13, ptr noundef nonnull align 4 dereferenceable(8) %15)
  br i1 %16, label %59, label %17

17:                                               ; preds = %11
  %18 = load ptr, ptr %4, align 8, !tbaa !464
  %19 = getelementptr inbounds nuw %"struct.cv::text::region_triplet", ptr %18, i32 0, i32 0
  %20 = load ptr, ptr %5, align 8, !tbaa !464
  %21 = getelementptr inbounds nuw %"struct.cv::text::region_triplet", ptr %20, i32 0, i32 2
  %22 = call noundef zeroext i1 @_ZN2cveqIiLi2ELi1EEEbRKNS_4MatxIT_XT0_EXT1_EEES5_(ptr noundef nonnull align 4 dereferenceable(8) %19, ptr noundef nonnull align 4 dereferenceable(8) %21)
  br i1 %22, label %59, label %23

23:                                               ; preds = %17
  %24 = load ptr, ptr %4, align 8, !tbaa !464
  %25 = getelementptr inbounds nuw %"struct.cv::text::region_triplet", ptr %24, i32 0, i32 1
  %26 = load ptr, ptr %5, align 8, !tbaa !464
  %27 = getelementptr inbounds nuw %"struct.cv::text::region_triplet", ptr %26, i32 0, i32 0
  %28 = call noundef zeroext i1 @_ZN2cveqIiLi2ELi1EEEbRKNS_4MatxIT_XT0_EXT1_EEES5_(ptr noundef nonnull align 4 dereferenceable(8) %25, ptr noundef nonnull align 4 dereferenceable(8) %27)
  br i1 %28, label %59, label %29

29:                                               ; preds = %23
  %30 = load ptr, ptr %4, align 8, !tbaa !464
  %31 = getelementptr inbounds nuw %"struct.cv::text::region_triplet", ptr %30, i32 0, i32 1
  %32 = load ptr, ptr %5, align 8, !tbaa !464
  %33 = getelementptr inbounds nuw %"struct.cv::text::region_triplet", ptr %32, i32 0, i32 1
  %34 = call noundef zeroext i1 @_ZN2cveqIiLi2ELi1EEEbRKNS_4MatxIT_XT0_EXT1_EEES5_(ptr noundef nonnull align 4 dereferenceable(8) %31, ptr noundef nonnull align 4 dereferenceable(8) %33)
  br i1 %34, label %59, label %35

35:                                               ; preds = %29
  %36 = load ptr, ptr %4, align 8, !tbaa !464
  %37 = getelementptr inbounds nuw %"struct.cv::text::region_triplet", ptr %36, i32 0, i32 1
  %38 = load ptr, ptr %5, align 8, !tbaa !464
  %39 = getelementptr inbounds nuw %"struct.cv::text::region_triplet", ptr %38, i32 0, i32 2
  %40 = call noundef zeroext i1 @_ZN2cveqIiLi2ELi1EEEbRKNS_4MatxIT_XT0_EXT1_EEES5_(ptr noundef nonnull align 4 dereferenceable(8) %37, ptr noundef nonnull align 4 dereferenceable(8) %39)
  br i1 %40, label %59, label %41

41:                                               ; preds = %35
  %42 = load ptr, ptr %4, align 8, !tbaa !464
  %43 = getelementptr inbounds nuw %"struct.cv::text::region_triplet", ptr %42, i32 0, i32 2
  %44 = load ptr, ptr %5, align 8, !tbaa !464
  %45 = getelementptr inbounds nuw %"struct.cv::text::region_triplet", ptr %44, i32 0, i32 0
  %46 = call noundef zeroext i1 @_ZN2cveqIiLi2ELi1EEEbRKNS_4MatxIT_XT0_EXT1_EEES5_(ptr noundef nonnull align 4 dereferenceable(8) %43, ptr noundef nonnull align 4 dereferenceable(8) %45)
  br i1 %46, label %59, label %47

47:                                               ; preds = %41
  %48 = load ptr, ptr %4, align 8, !tbaa !464
  %49 = getelementptr inbounds nuw %"struct.cv::text::region_triplet", ptr %48, i32 0, i32 2
  %50 = load ptr, ptr %5, align 8, !tbaa !464
  %51 = getelementptr inbounds nuw %"struct.cv::text::region_triplet", ptr %50, i32 0, i32 1
  %52 = call noundef zeroext i1 @_ZN2cveqIiLi2ELi1EEEbRKNS_4MatxIT_XT0_EXT1_EEES5_(ptr noundef nonnull align 4 dereferenceable(8) %49, ptr noundef nonnull align 4 dereferenceable(8) %51)
  br i1 %52, label %59, label %53

53:                                               ; preds = %47
  %54 = load ptr, ptr %4, align 8, !tbaa !464
  %55 = getelementptr inbounds nuw %"struct.cv::text::region_triplet", ptr %54, i32 0, i32 2
  %56 = load ptr, ptr %5, align 8, !tbaa !464
  %57 = getelementptr inbounds nuw %"struct.cv::text::region_triplet", ptr %56, i32 0, i32 2
  %58 = call noundef zeroext i1 @_ZN2cveqIiLi2ELi1EEEbRKNS_4MatxIT_XT0_EXT1_EEES5_(ptr noundef nonnull align 4 dereferenceable(8) %55, ptr noundef nonnull align 4 dereferenceable(8) %57)
  br i1 %58, label %59, label %60

59:                                               ; preds = %53, %47, %41, %35, %29, %23, %17, %11, %2
  store i1 true, ptr %3, align 1
  br label %61

60:                                               ; preds = %53
  store i1 false, ptr %3, align 1
  br label %61

61:                                               ; preds = %60, %59
  %62 = load i1, ptr %3, align 1
  ret i1 %62
}