; Function Attrs: mustprogress nofree norecurse nosync nounwind willreturn memory(argmem: read) uwtable
define hidden noundef zeroext i1 @_ZN2cv4text16haveCommonRegionERNS0_14region_tripletES2_(ptr noundef nonnull readonly align 4 captures(none) dereferenceable(68) %0, ptr noundef nonnull readonly align 4 captures(none) dereferenceable(68) %1) local_unnamed_addr #14 {
  br label %3

3:                                                ; preds = %3, %2
  %.not10.i = phi i1 [ true, %2 ], [ false, %3 ]
  %indvars.iv.i = phi i64 [ 0, %2 ], [ 1, %3 ]
  %4 = getelementptr inbounds nuw [2 x i32], ptr %0, i64 0, i64 %indvars.iv.i
  %5 = load i32, ptr %4, align 4, !tbaa !23
  %6 = getelementptr inbounds nuw [2 x i32], ptr %1, i64 0, i64 %indvars.iv.i
  %7 = load i32, ptr %6, align 4, !tbaa !23
  %.not.i = icmp eq i32 %5, %7
  %or.cond.i = and i1 %.not10.i, %.not.i
  br i1 %or.cond.i, label %3, label %_ZN2cveqIiLi2ELi1EEEbRKNS_4MatxIT_XT0_EXT1_EEES5_.exit, !llvm.loop !518

_ZN2cveqIiLi2ELi1EEEbRKNS_4MatxIT_XT0_EXT1_EEES5_.exit: ; preds = %3
  br i1 %.not.i, label %_ZN2cveqIiLi2ELi1EEEbRKNS_4MatxIT_XT0_EXT1_EEES5_.exit58, label %8

8:                                                ; preds = %_ZN2cveqIiLi2ELi1EEEbRKNS_4MatxIT_XT0_EXT1_EEES5_.exit
  %9 = getelementptr inbounds nuw i8, ptr %1, i64 8
  br label %10

10:                                               ; preds = %10, %8
  %.not10.i19 = phi i1 [ true, %8 ], [ false, %10 ]
  %indvars.iv.i20 = phi i64 [ 0, %8 ], [ 1, %10 ]
  %11 = getelementptr inbounds nuw [2 x i32], ptr %0, i64 0, i64 %indvars.iv.i20
  %12 = load i32, ptr %11, align 4, !tbaa !23
  %13 = getelementptr inbounds nuw [2 x i32], ptr %9, i64 0, i64 %indvars.iv.i20
  %14 = load i32, ptr %13, align 4, !tbaa !23
  %.not.i21 = icmp eq i32 %12, %14
  %or.cond.i22 = and i1 %.not10.i19, %.not.i21
  br i1 %or.cond.i22, label %10, label %_ZN2cveqIiLi2ELi1EEEbRKNS_4MatxIT_XT0_EXT1_EEES5_.exit23, !llvm.loop !518

_ZN2cveqIiLi2ELi1EEEbRKNS_4MatxIT_XT0_EXT1_EEES5_.exit23: ; preds = %10
  br i1 %.not.i21, label %_ZN2cveqIiLi2ELi1EEEbRKNS_4MatxIT_XT0_EXT1_EEES5_.exit58, label %15

15:                                               ; preds = %_ZN2cveqIiLi2ELi1EEEbRKNS_4MatxIT_XT0_EXT1_EEES5_.exit23
  %16 = getelementptr inbounds nuw i8, ptr %1, i64 16
  br label %17

17:                                               ; preds = %17, %15
  %.not10.i24 = phi i1 [ true, %15 ], [ false, %17 ]
  %indvars.iv.i25 = phi i64 [ 0, %15 ], [ 1, %17 ]
  %18 = getelementptr inbounds nuw [2 x i32], ptr %0, i64 0, i64 %indvars.iv.i25
  %19 = load i32, ptr %18, align 4, !tbaa !23
  %20 = getelementptr inbounds nuw [2 x i32], ptr %16, i64 0, i64 %indvars.iv.i25
  %21 = load i32, ptr %20, align 4, !tbaa !23
  %.not.i26 = icmp eq i32 %19, %21
  %or.cond.i27 = and i1 %.not10.i24, %.not.i26
  br i1 %or.cond.i27, label %17, label %_ZN2cveqIiLi2ELi1EEEbRKNS_4MatxIT_XT0_EXT1_EEES5_.exit28, !llvm.loop !518

_ZN2cveqIiLi2ELi1EEEbRKNS_4MatxIT_XT0_EXT1_EEES5_.exit28: ; preds = %17
  br i1 %.not.i26, label %_ZN2cveqIiLi2ELi1EEEbRKNS_4MatxIT_XT0_EXT1_EEES5_.exit58, label %22

22:                                               ; preds = %_ZN2cveqIiLi2ELi1EEEbRKNS_4MatxIT_XT0_EXT1_EEES5_.exit28
  %23 = getelementptr inbounds nuw i8, ptr %0, i64 8
  br label %24

24:                                               ; preds = %24, %22
  %.not10.i29 = phi i1 [ true, %22 ], [ false, %24 ]
  %indvars.iv.i30 = phi i64 [ 0, %22 ], [ 1, %24 ]
  %25 = getelementptr inbounds nuw [2 x i32], ptr %23, i64 0, i64 %indvars.iv.i30
  %26 = load i32, ptr %25, align 4, !tbaa !23
  %27 = getelementptr inbounds nuw [2 x i32], ptr %1, i64 0, i64 %indvars.iv.i30
  %28 = load i32, ptr %27, align 4, !tbaa !23
  %.not.i31 = icmp eq i32 %26, %28
  %or.cond.i32 = and i1 %.not10.i29, %.not.i31
  br i1 %or.cond.i32, label %24, label %_ZN2cveqIiLi2ELi1EEEbRKNS_4MatxIT_XT0_EXT1_EEES5_.exit33, !llvm.loop !518

_ZN2cveqIiLi2ELi1EEEbRKNS_4MatxIT_XT0_EXT1_EEES5_.exit33: ; preds = %24
  br i1 %.not.i31, label %_ZN2cveqIiLi2ELi1EEEbRKNS_4MatxIT_XT0_EXT1_EEES5_.exit58, label %.preheader61

.preheader61:                                     ; preds = %_ZN2cveqIiLi2ELi1EEEbRKNS_4MatxIT_XT0_EXT1_EEES5_.exit33, %.preheader61
  %.not10.i34 = phi i1 [ false, %.preheader61 ], [ true, %_ZN2cveqIiLi2ELi1EEEbRKNS_4MatxIT_XT0_EXT1_EEES5_.exit33 ]
  %indvars.iv.i35 = phi i64 [ 1, %.preheader61 ], [ 0, %_ZN2cveqIiLi2ELi1EEEbRKNS_4MatxIT_XT0_EXT1_EEES5_.exit33 ]
  %29 = getelementptr inbounds nuw [2 x i32], ptr %23, i64 0, i64 %indvars.iv.i35
  %30 = load i32, ptr %29, align 4, !tbaa !23
  %31 = getelementptr inbounds nuw [2 x i32], ptr %9, i64 0, i64 %indvars.iv.i35
  %32 = load i32, ptr %31, align 4, !tbaa !23
  %.not.i36 = icmp eq i32 %30, %32
  %or.cond.i37 = and i1 %.not10.i34, %.not.i36
  br i1 %or.cond.i37, label %.preheader61, label %_ZN2cveqIiLi2ELi1EEEbRKNS_4MatxIT_XT0_EXT1_EEES5_.exit38, !llvm.loop !518

_ZN2cveqIiLi2ELi1EEEbRKNS_4MatxIT_XT0_EXT1_EEES5_.exit38: ; preds = %.preheader61
  br i1 %.not.i36, label %_ZN2cveqIiLi2ELi1EEEbRKNS_4MatxIT_XT0_EXT1_EEES5_.exit58, label %.preheader60

.preheader60:                                     ; preds = %_ZN2cveqIiLi2ELi1EEEbRKNS_4MatxIT_XT0_EXT1_EEES5_.exit38, %.preheader60
  %.not10.i39 = phi i1 [ false, %.preheader60 ], [ true, %_ZN2cveqIiLi2ELi1EEEbRKNS_4MatxIT_XT0_EXT1_EEES5_.exit38 ]
  %indvars.iv.i40 = phi i64 [ 1, %.preheader60 ], [ 0, %_ZN2cveqIiLi2ELi1EEEbRKNS_4MatxIT_XT0_EXT1_EEES5_.exit38 ]
  %33 = getelementptr inbounds nuw [2 x i32], ptr %23, i64 0, i64 %indvars.iv.i40
  %34 = load i32, ptr %33, align 4, !tbaa !23
  %35 = getelementptr inbounds nuw [2 x i32], ptr %16, i64 0, i64 %indvars.iv.i40
  %36 = load i32, ptr %35, align 4, !tbaa !23
  %.not.i41 = icmp eq i32 %34, %36
  %or.cond.i42 = and i1 %.not10.i39, %.not.i41
  br i1 %or.cond.i42, label %.preheader60, label %_ZN2cveqIiLi2ELi1EEEbRKNS_4MatxIT_XT0_EXT1_EEES5_.exit43, !llvm.loop !518

_ZN2cveqIiLi2ELi1EEEbRKNS_4MatxIT_XT0_EXT1_EEES5_.exit43: ; preds = %.preheader60
  br i1 %.not.i41, label %_ZN2cveqIiLi2ELi1EEEbRKNS_4MatxIT_XT0_EXT1_EEES5_.exit58, label %37

37:                                               ; preds = %_ZN2cveqIiLi2ELi1EEEbRKNS_4MatxIT_XT0_EXT1_EEES5_.exit43
  %38 = getelementptr inbounds nuw i8, ptr %0, i64 16
  br label %39

39:                                               ; preds = %39, %37
  %.not10.i44 = phi i1 [ true, %37 ], [ false, %39 ]
  %indvars.iv.i45 = phi i64 [ 0, %37 ], [ 1, %39 ]
  %40 = getelementptr inbounds nuw [2 x i32], ptr %38, i64 0, i64 %indvars.iv.i45
  %41 = load i32, ptr %40, align 4, !tbaa !23
  %42 = getelementptr inbounds nuw [2 x i32], ptr %1, i64 0, i64 %indvars.iv.i45
  %43 = load i32, ptr %42, align 4, !tbaa !23
  %.not.i46 = icmp eq i32 %41, %43
  %or.cond.i47 = and i1 %.not10.i44, %.not.i46
  br i1 %or.cond.i47, label %39, label %_ZN2cveqIiLi2ELi1EEEbRKNS_4MatxIT_XT0_EXT1_EEES5_.exit48, !llvm.loop !518

_ZN2cveqIiLi2ELi1EEEbRKNS_4MatxIT_XT0_EXT1_EEES5_.exit48: ; preds = %39
  br i1 %.not.i46, label %_ZN2cveqIiLi2ELi1EEEbRKNS_4MatxIT_XT0_EXT1_EEES5_.exit58, label %.preheader59

.preheader59:                                     ; preds = %_ZN2cveqIiLi2ELi1EEEbRKNS_4MatxIT_XT0_EXT1_EEES5_.exit48, %.preheader59
  %.not10.i49 = phi i1 [ false, %.preheader59 ], [ true, %_ZN2cveqIiLi2ELi1EEEbRKNS_4MatxIT_XT0_EXT1_EEES5_.exit48 ]
  %indvars.iv.i50 = phi i64 [ 1, %.preheader59 ], [ 0, %_ZN2cveqIiLi2ELi1EEEbRKNS_4MatxIT_XT0_EXT1_EEES5_.exit48 ]
  %44 = getelementptr inbounds nuw [2 x i32], ptr %38, i64 0, i64 %indvars.iv.i50
  %45 = load i32, ptr %44, align 4, !tbaa !23
  %46 = getelementptr inbounds nuw [2 x i32], ptr %9, i64 0, i64 %indvars.iv.i50
  %47 = load i32, ptr %46, align 4, !tbaa !23
  %.not.i51 = icmp eq i32 %45, %47
  %or.cond.i52 = and i1 %.not10.i49, %.not.i51
  br i1 %or.cond.i52, label %.preheader59, label %_ZN2cveqIiLi2ELi1EEEbRKNS_4MatxIT_XT0_EXT1_EEES5_.exit53, !llvm.loop !518

_ZN2cveqIiLi2ELi1EEEbRKNS_4MatxIT_XT0_EXT1_EEES5_.exit53: ; preds = %.preheader59
  br i1 %.not.i51, label %_ZN2cveqIiLi2ELi1EEEbRKNS_4MatxIT_XT0_EXT1_EEES5_.exit58, label %.preheader

.preheader:                                       ; preds = %_ZN2cveqIiLi2ELi1EEEbRKNS_4MatxIT_XT0_EXT1_EEES5_.exit53, %.preheader
  %.not10.i54 = phi i1 [ false, %.preheader ], [ true, %_ZN2cveqIiLi2ELi1EEEbRKNS_4MatxIT_XT0_EXT1_EEES5_.exit53 ]
  %indvars.iv.i55 = phi i64 [ 1, %.preheader ], [ 0, %_ZN2cveqIiLi2ELi1EEEbRKNS_4MatxIT_XT0_EXT1_EEES5_.exit53 ]
  %48 = getelementptr inbounds nuw [2 x i32], ptr %38, i64 0, i64 %indvars.iv.i55
  %49 = load i32, ptr %48, align 4, !tbaa !23
  %50 = getelementptr inbounds nuw [2 x i32], ptr %16, i64 0, i64 %indvars.iv.i55
  %51 = load i32, ptr %50, align 4, !tbaa !23
  %.not.i56 = icmp eq i32 %49, %51
  %or.cond.i57 = and i1 %.not10.i54, %.not.i56
  br i1 %or.cond.i57, label %.preheader, label %_ZN2cveqIiLi2ELi1EEEbRKNS_4MatxIT_XT0_EXT1_EEES5_.exit58, !llvm.loop !518

_ZN2cveqIiLi2ELi1EEEbRKNS_4MatxIT_XT0_EXT1_EEES5_.exit58: ; preds = %.preheader, %_ZN2cveqIiLi2ELi1EEEbRKNS_4MatxIT_XT0_EXT1_EEES5_.exit, %_ZN2cveqIiLi2ELi1EEEbRKNS_4MatxIT_XT0_EXT1_EEES5_.exit23, %_ZN2cveqIiLi2ELi1EEEbRKNS_4MatxIT_XT0_EXT1_EEES5_.exit28, %_ZN2cveqIiLi2ELi1EEEbRKNS_4MatxIT_XT0_EXT1_EEES5_.exit33, %_ZN2cveqIiLi2ELi1EEEbRKNS_4MatxIT_XT0_EXT1_EEES5_.exit38, %_ZN2cveqIiLi2ELi1EEEbRKNS_4MatxIT_XT0_EXT1_EEES5_.exit43, %_ZN2cveqIiLi2ELi1EEEbRKNS_4MatxIT_XT0_EXT1_EEES5_.exit48, %_ZN2cveqIiLi2ELi1EEEbRKNS_4MatxIT_XT0_EXT1_EEES5_.exit53
  %.0 = phi i1 [ true, %_ZN2cveqIiLi2ELi1EEEbRKNS_4MatxIT_XT0_EXT1_EEES5_.exit53 ], [ true, %_ZN2cveqIiLi2ELi1EEEbRKNS_4MatxIT_XT0_EXT1_EEES5_.exit48 ], [ true, %_ZN2cveqIiLi2ELi1EEEbRKNS_4MatxIT_XT0_EXT1_EEES5_.exit43 ], [ true, %_ZN2cveqIiLi2ELi1EEEbRKNS_4MatxIT_XT0_EXT1_EEES5_.exit38 ], [ true, %_ZN2cveqIiLi2ELi1EEEbRKNS_4MatxIT_XT0_EXT1_EEES5_.exit33 ], [ true, %_ZN2cveqIiLi2ELi1EEEbRKNS_4MatxIT_XT0_EXT1_EEES5_.exit28 ], [ true, %_ZN2cveqIiLi2ELi1EEEbRKNS_4MatxIT_XT0_EXT1_EEES5_.exit23 ], [ true, %_ZN2cveqIiLi2ELi1EEEbRKNS_4MatxIT_XT0_EXT1_EEES5_.exit ], [ %.not.i56, %.preheader ]
  ret i1 %.0
}